target datalayout = "e-m:e-p270:32:32-p271:32:32-p272:64:64-i64:64-i128:128-f80:128-n8:16:32:64-S128"
target triple = "x86_64-pc-linux-gnu"

%"class.OpenColorIO_v2_5dev::MatrixOpData::Offsets" = type { [4 x double] }
%"class.OpenColorIO_v2_5dev::ArrayT" = type { %"class.OpenColorIO_v2_5dev::ArrayBase", i64, i64, %"class.std::vector" }
%"class.OpenColorIO_v2_5dev::ArrayBase" = type { ptr }
%"class.std::vector" = type { %"struct.std::_Vector_base" }
%"struct.std::_Vector_base" = type { %"struct.std::_Vector_base<double, std::allocator<double>>::_Vector_impl" }
%"struct.std::_Vector_base<double, std::allocator<double>>::_Vector_impl" = type { %"struct.std::_Vector_base<double, std::allocator<double>>::_Vector_impl_data" }
%"struct.std::_Vector_base<double, std::allocator<double>>::_Vector_impl_data" = type { ptr, ptr, ptr }

@constinit.13 = private constant [4 x double] zeroinitializer, align 8

; Function Attrs: inlinehint mustprogress nounwind uwtable
define linkonce_odr hidden noundef nonnull align 8 dereferenceable(8) ptr @_ZN19OpenColorIO_v2_5dev12MatrixOpData7OffsetsixEm(ptr noundef nonnull align 8 dereferenceable(32) %0, i64 noundef %1) #6 comdat align 2 {
  %3 = alloca ptr, align 8
  %4 = alloca i64, align 8
  store ptr %0, ptr %3, align 8, !tbaa !3
  store i64 %1, ptr %4, align 8, !tbaa !22
  %5 = load ptr, ptr %3, align 8
  %6 = getelementptr inbounds nuw %"class.OpenColorIO_v2_5dev::MatrixOpData::Offsets", ptr %5, i32 0, i32 0
  %7 = load i64, ptr %4, align 8, !tbaa !22
  %8 = getelementptr inbounds nuw [4 x double], ptr %6, i64 0, i64 %7
  ret ptr %8
}

; Function Attrs: inlinehint mustprogress nounwind uwtable
define linkonce_odr hidden noundef nonnull align 8 dereferenceable(8) ptr @_ZNK19OpenColorIO_v2_5dev12MatrixOpData7OffsetsixEm(ptr noundef nonnull align 8 dereferenceable(32) %0, i64 noundef %1) #6 comdat align 2 {
  %3 = alloca ptr, align 8
  %4 = alloca i64, align 8
  store ptr %0, ptr %3, align 8, !tbaa !3
  store i64 %1, ptr %4, align 8, !tbaa !22
  %5 = load ptr, ptr %3, align 8
  %6 = getelementptr inbounds nuw %"class.OpenColorIO_v2_5dev::MatrixOpData::Offsets", ptr %5, i32 0, i32 0
  %7 = load i64, ptr %4, align 8, !tbaa !22
  %8 = getelementptr inbounds nuw [4 x double], ptr %6, i64 0, i64 %7
  ret ptr %8
}

; Function Attrs: mustprogress nounwind uwtable
define linkonce_odr hidden noundef nonnull align 8 dereferenceable(8) ptr @_ZNKSt6vectorIdSaIdEEixEm(ptr noundef nonnull align 8 dereferenceable(24) %0, i64 noundef %1) #7 comdat align 2 {
  %3 = alloca ptr, align 8
  %4 = alloca i64, align 8
  store ptr %0, ptr %3, align 8, !tbaa !18
  store i64 %1, ptr %4, align 8, !tbaa !22
  %5 = load ptr, ptr %3, align 8
  %6 = getelementptr inbounds nuw %"struct.std::_Vector_base", ptr %5, i32 0, i32 0
  %7 = getelementptr inbounds nuw %"struct.std::_Vector_base<double, std::allocator<double>>::_Vector_impl_data", ptr %6, i32 0, i32 0
  %8 = load ptr, ptr %7, align 8, !tbaa !24
  %9 = load i64, ptr %4, align 8, !tbaa !22
  %10 = getelementptr inbounds nuw double, ptr %8, i64 %9
  ret ptr %10
}

; Function Attrs: inlinehint mustprogress nounwind uwtable
define linkonce_odr hidden noundef nonnull align 8 dereferenceable(24) ptr @_ZNK19OpenColorIO_v2_5dev6ArrayTIdE9getValuesEv(ptr noundef nonnull align 8 dereferenceable(48) %0) #6 comdat align 2 {
  %2 = alloca ptr, align 8
  store ptr %0, ptr %2, align 8, !tbaa !20
  %3 = load ptr, ptr %2, align 8
  %4 = getelementptr inbounds nuw %"class.OpenColorIO_v2_5dev::ArrayT", ptr %3, i32 0, i32 3
  ret ptr %4
}

; Function Attrs: mustprogress nounwind uwtable
define linkonce_odr hidden void @_ZN19OpenColorIO_v2_5dev12MatrixOpData7OffsetsC2Ev(ptr noundef nonnull align 8 dereferenceable(32) %0) unnamed_addr #7 comdat align 2 {
  %2 = alloca ptr, align 8
  store ptr %0, ptr %2, align 8, !tbaa !3
  %3 = load ptr, ptr %2, align 8
  %4 = getelementptr inbounds nuw %"class.OpenColorIO_v2_5dev::MatrixOpData::Offsets", ptr %3, i32 0, i32 0
  call void @llvm.memcpy.p0.p0.i64(ptr align 8 %4, ptr align 8 @constinit.13, i64 32, i1 false), !tbaa.struct !28
  ret void
}

; Function Attrs: mustprogress uwtable
define hidden void @_ZNK19OpenColorIO_v2_5dev12MatrixOpData11MatrixArray5innerERKNS0_7OffsetsE(ptr dead_on_unwind noalias writable sret(%"class.OpenColorIO_v2_5dev::MatrixOpData::Offsets") align 8 %0, ptr noundef nonnull align 8 dereferenceable(48) %1, ptr noundef nonnull align 8 dereferenceable(32) %2) #4 align 2 {
  %4 = alloca ptr, align 8
  %5 = alloca ptr, align 8
  %6 = alloca ptr, align 8
  %7 = alloca i64, align 8
  %8 = alloca ptr, align 8
  %9 = alloca i64, align 8
  %10 = alloca i32, align 4
  %11 = alloca double, align 8
  %12 = alloca i64, align 8
  store ptr %0, ptr %4, align 8
  store ptr %1, ptr %5, align 8, !tbaa !16
  store ptr %2, ptr %6, align 8, !tbaa !3
  %13 = load ptr, ptr %5, align 8
  call void @_ZN19OpenColorIO_v2_5dev12MatrixOpData7OffsetsC2Ev(ptr noundef nonnull align 8 dereferenceable(32) %0) #3
  call void @llvm.lifetime.start.p0(i64 8, ptr %7) #3
  %14 = load ptr, ptr %13, align 8, !tbaa !34
  %15 = getelementptr inbounds ptr, ptr %14, i64 4
  %16 = load ptr, ptr %15, align 8
  %17 = call noundef i64 %16(ptr noundef nonnull align 8 dereferenceable(48) %13)
  store i64 %17, ptr %7, align 8, !tbaa !22
  call void @llvm.lifetime.start.p0(i64 8, ptr %8) #3
  %18 = call noundef nonnull align 8 dereferenceable(24) ptr @_ZNK19OpenColorIO_v2_5dev6ArrayTIdE9getValuesEv(ptr noundef nonnull align 8 dereferenceable(48) %13)
  store ptr %18, ptr %8, align 8, !tbaa !18
  call void @llvm.lifetime.start.p0(i64 8, ptr %9) #3
  store i64 0, ptr %9, align 8, !tbaa !22
  br label %19

19:                                               ; preds = %52, %3
  %20 = load i64, ptr %9, align 8, !tbaa !22
  %21 = load i64, ptr %7, align 8, !tbaa !22
  %22 = icmp ult i64 %20, %21
  br i1 %22, label %24, label %23

23:                                               ; preds = %19
  store i32 2, ptr %10, align 4
  call void @llvm.lifetime.end.p0(i64 8, ptr %9) #3
  br label %55

24:                                               ; preds = %19
  call void @llvm.lifetime.start.p0(i64 8, ptr %11) #3
  store double 0.000000e+00, ptr %11, align 8, !tbaa !12
  call void @llvm.lifetime.start.p0(i64 8, ptr %12) #3
  store i64 0, ptr %12, align 8, !tbaa !22
  br label %25

25:                                               ; preds = %45, %24
  %26 = load i64, ptr %12, align 8, !tbaa !22
  %27 = load i64, ptr %7, align 8, !tbaa !22
  %28 = icmp ult i64 %26, %27
  br i1 %28, label %30, label %29

29:                                               ; preds = %25
  store i32 5, ptr %10, align 4
  call void @llvm.lifetime.end.p0(i64 8, ptr %12) #3
  br label %48

30:                                               ; preds = %25
  %31 = load ptr, ptr %8, align 8, !tbaa !18
  %32 = load i64, ptr %9, align 8, !tbaa !22
  %33 = load i64, ptr %7, align 8, !tbaa !22
  %34 = mul i64 %32, %33
  %35 = load i64, ptr %12, align 8, !tbaa !22
  %36 = add i64 %34, %35
  %37 = call noundef nonnull align 8 dereferenceable(8) ptr @_ZNKSt6vectorIdSaIdEEixEm(ptr noundef nonnull align 8 dereferenceable(24) %31, i64 noundef %36) #3
  %38 = load double, ptr %37, align 8, !tbaa !12
  %39 = load ptr, ptr %6, align 8, !tbaa !3
  %40 = load i64, ptr %12, align 8, !tbaa !22
  %41 = call noundef nonnull align 8 dereferenceable(8) ptr @_ZNK19OpenColorIO_v2_5dev12MatrixOpData7OffsetsixEm(ptr noundef nonnull align 8 dereferenceable(32) %39, i64 noundef %40)
  %42 = load double, ptr %41, align 8, !tbaa !12
  %43 = load double, ptr %11, align 8, !tbaa !12
  %44 = call double @llvm.fmuladd.f64(double %38, double %42, double %43)
  store double %44, ptr %11, align 8, !tbaa !12
  br label %45

45:                                               ; preds = %30
  %46 = load i64, ptr %12, align 8, !tbaa !22
  %47 = add i64 %46, 1
  store i64 %47, ptr %12, align 8, !tbaa !22
  br label %25, !llvm.loop !60

48:                                               ; preds = %29
  %49 = load double, ptr %11, align 8, !tbaa !12
  %50 = load i64, ptr %9, align 8, !tbaa !22
  %51 = call noundef nonnull align 8 dereferenceable(8) ptr @_ZN19OpenColorIO_v2_5dev12MatrixOpData7OffsetsixEm(ptr noundef nonnull align 8 dereferenceable(32) %0, i64 noundef %50)
  store double %49, ptr %51, align 8, !tbaa !12
  call void @llvm.lifetime.end.p0(i64 8, ptr %11) #3
  br label %52

52:                                               ; preds = %48
  %53 = load i64, ptr %9, align 8, !tbaa !22
  %54 = add i64 %53, 1
  store i64 %54, ptr %9, align 8, !tbaa !22
  br label %19, !llvm.loop !61

55:                                               ; preds = %23
  store i32 1, ptr %10, align 4
  call void @llvm.lifetime.end.p0(i64 8, ptr %8) #3
  call void @llvm.lifetime.end.p0(i64 8, ptr %7) #3
  ret void
}