; Function Attrs: mustprogress uwtable
define hidden void @_ZNK19OpenColorIO_v2_5dev12MatrixOpData11MatrixArray5innerERKNS0_7OffsetsE(ptr dead_on_unwind noalias writable writeonly sret(%"class.OpenColorIO_v2_5dev::MatrixOpData::Offsets") align 8 captures(none) initializes((0, 32)) %0, ptr noundef nonnull align 8 dereferenceable(48) %1, ptr noundef nonnull readonly align 8 captures(none) dereferenceable(32) %2) local_unnamed_addr #3 align 2 {
  tail call void @llvm.memset.p0.i64(ptr noundef nonnull align 8 dereferenceable(32) %0, i8 0, i64 32, i1 false)
  %4 = load ptr, ptr %1, align 8, !tbaa !15
  %5 = getelementptr inbounds nuw i8, ptr %4, i64 32
  %6 = load ptr, ptr %5, align 8
  %7 = tail call noundef i64 %6(ptr noundef nonnull align 8 dereferenceable(48) %1)
  %.not = icmp eq i64 %7, 0
  br i1 %.not, label %._crit_edge, label %.preheader.lr.ph

.preheader.lr.ph:                                 ; preds = %3
  %8 = getelementptr inbounds nuw i8, ptr %1, i64 24
  %9 = load ptr, ptr %8, align 8, !tbaa !9
  br label %.preheader

.preheader:                                       ; preds = %.preheader.lr.ph, %12
  %.01620 = phi i64 [ 0, %.preheader.lr.ph ], [ %14, %12 ]
  %10 = mul i64 %.01620, %7
  %11 = getelementptr double, ptr %9, i64 %10
  br label %15

._crit_edge:                                      ; preds = %12, %3
  ret void

12:                                               ; preds = %15
  %13 = getelementptr inbounds nuw [4 x double], ptr %0, i64 0, i64 %.01620
  store double %20, ptr %13, align 8, !tbaa !7
  %14 = add nuw i64 %.01620, 1
  %exitcond21.not = icmp eq i64 %14, %7
  br i1 %exitcond21.not, label %._crit_edge, label %.preheader, !llvm.loop !49

15:                                               ; preds = %.preheader, %15
  %.019 = phi i64 [ 0, %.preheader ], [ %21, %15 ]
  %.01518 = phi double [ 0.000000e+00, %.preheader ], [ %20, %15 ]
  %16 = getelementptr double, ptr %11, i64 %.019
  %17 = load double, ptr %16, align 8, !tbaa !7
  %18 = getelementptr inbounds nuw [4 x double], ptr %2, i64 0, i64 %.019
  %19 = load double, ptr %18, align 8, !tbaa !7
  %20 = tail call double @llvm.fmuladd.f64(double %17, double %19, double %.01518)
  %21 = add nuw i64 %.019, 1
  %exitcond.not = icmp eq i64 %21, %7
  br i1 %exitcond.not, label %12, label %15, !llvm.loop !50
}